target datalayout = "e-m:e-p270:32:32-p271:32:32-p272:64:64-i64:64-i128:128-f80:128-n8:16:32:64-S128"
target triple = "x86_64-pc-linux-gnu"

%union.EX_STYPE = type { ptr }
%struct.Exnode_s = type { i64, i64, i8, %union.anon, %union.Exdata_u, i32 }
%union.anon = type { ptr }
%union.Exdata_u = type { %struct.anon.2 }
%struct.anon.2 = type { ptr, ptr, ptr, ptr }
%struct.Expr_s = type { ptr, ptr, [10 x ptr], ptr, ptr, ptr, ptr, ptr, ptr, %struct.agxbuf, %union.EX_STYPE, %struct.Exid_s, [512 x i8], ptr, i32, i32, i32, i64, i64, i32 }
%struct.agxbuf = type { %union.anon.10 }
%union.anon.10 = type { %struct.anon.11 }
%struct.anon.11 = type { ptr, i64, i64, [7 x i8], i8 }
%struct.Exid_s = type { %struct.dtlink_s_, i64, i64, i64, i64, ptr, ptr, [32 x i8] }
%struct.dtlink_s_ = type { ptr, %union.anon.12 }
%union.anon.12 = type { ptr }
%struct.Exdisc_s = type { i64, i64, ptr, ptr, ptr, ptr, ptr, ptr, ptr, ptr, ptr, ptr, ptr, ptr, ptr, ptr, ptr }
%struct.anon = type { %union.EX_STYPE, ptr }
%struct.Exassoc_t = type { %struct.dtlink_s_, %union.EX_STYPE, %union.EX_STYPE, [1 x i8] }
%struct.dt_s_ = type { ptr, ptr, %struct.Dtdata_t, ptr, i32, ptr, ptr, ptr }
%struct.Dtdata_t = type { i32, ptr, %union.anon.13, i32, i32, i32 }
%union.anon.13 = type { ptr }

@.str.20 = private unnamed_addr constant [5 x i8] c"%llx\00", align 1

; Function Attrs: nounwind uwtable
define internal ptr @getdyn(ptr noundef %0, ptr noundef %1, ptr noundef %2, ptr noundef %3) #0 {
  %5 = alloca %union.EX_STYPE, align 8
  %6 = alloca ptr, align 8
  %7 = alloca ptr, align 8
  %8 = alloca ptr, align 8
  %9 = alloca ptr, align 8
  %10 = alloca ptr, align 8
  %11 = alloca %union.EX_STYPE, align 8
  %12 = alloca %union.EX_STYPE, align 8
  %13 = alloca [17 x i8], align 16
  %14 = alloca ptr, align 8
  %15 = alloca %union.EX_STYPE, align 8
  %16 = alloca %struct.Exassoc_t, align 8
  %17 = alloca i64, align 8
  %18 = alloca %union.EX_STYPE, align 8
  %19 = alloca %struct.Exassoc_t, align 8
  %20 = alloca %union.EX_STYPE, align 8
  %21 = alloca i32, align 4
  %22 = alloca %union.EX_STYPE, align 8
  store ptr %0, ptr %6, align 8, !tbaa !3
  store ptr %1, ptr %7, align 8, !tbaa !8
  store ptr %2, ptr %8, align 8, !tbaa !10
  store ptr %3, ptr %9, align 8, !tbaa !10
  call void @llvm.lifetime.start.p0(i64 8, ptr %10) #15
  call void @llvm.lifetime.start.p0(i64 8, ptr %11) #15
  %23 = load ptr, ptr %7, align 8, !tbaa !8
  %24 = getelementptr inbounds nuw %struct.Exnode_s, ptr %23, i32 0, i32 4
  %25 = getelementptr inbounds nuw %struct.anon.2, ptr %24, i32 0, i32 2
  %26 = load ptr, ptr %25, align 8, !tbaa !11
  %27 = icmp ne ptr %26, null
  br i1 %27, label %28, label %219

28:                                               ; preds = %4
  call void @llvm.lifetime.start.p0(i64 8, ptr %12) #15
  call void @llvm.lifetime.start.p0(i64 17, ptr %13) #15
  call void @llvm.lifetime.start.p0(i64 8, ptr %14) #15
  call void @llvm.lifetime.start.p0(i64 8, ptr %15) #15
  %29 = load ptr, ptr %6, align 8, !tbaa !3
  %30 = load ptr, ptr %7, align 8, !tbaa !8
  %31 = getelementptr inbounds nuw %struct.Exnode_s, ptr %30, i32 0, i32 4
  %32 = getelementptr inbounds nuw %struct.anon.2, ptr %31, i32 0, i32 2
  %33 = load ptr, ptr %32, align 8, !tbaa !11
  %34 = load ptr, ptr %8, align 8, !tbaa !10
  %35 = call ptr @eval(ptr noundef %29, ptr noundef %33, ptr noundef %34)
  %36 = getelementptr inbounds nuw %union.EX_STYPE, ptr %15, i32 0, i32 0
  store ptr %35, ptr %36, align 8
  call void @llvm.memcpy.p0.p0.i64(ptr align 8 %11, ptr align 8 %15, i64 8, i1 false), !tbaa.struct !34
  call void @llvm.lifetime.end.p0(i64 8, ptr %15) #15
  %37 = load ptr, ptr %7, align 8, !tbaa !8
  %38 = getelementptr inbounds nuw %struct.Exnode_s, ptr %37, i32 0, i32 4
  %39 = getelementptr inbounds nuw %struct.anon.2, ptr %38, i32 0, i32 0
  %40 = load ptr, ptr %39, align 8, !tbaa !11
  %41 = getelementptr inbounds nuw %struct.Exid_s, ptr %40, i32 0, i32 4
  %42 = load i64, ptr %41, align 8, !tbaa !80
  %43 = icmp eq i64 %42, 259
  br i1 %43, label %44, label %90

44:                                               ; preds = %28
  %45 = load ptr, ptr %7, align 8, !tbaa !8
  %46 = getelementptr inbounds nuw %struct.Exnode_s, ptr %45, i32 0, i32 4
  %47 = getelementptr inbounds nuw %struct.anon.2, ptr %46, i32 0, i32 0
  %48 = load ptr, ptr %47, align 8, !tbaa !11
  %49 = getelementptr inbounds nuw %struct.Exid_s, ptr %48, i32 0, i32 6
  %50 = load ptr, ptr %49, align 8, !tbaa !60
  %51 = getelementptr inbounds nuw %struct.dt_s_, ptr %50, i32 0, i32 0
  %52 = load ptr, ptr %51, align 8, !tbaa !61
  %53 = load ptr, ptr %7, align 8, !tbaa !8
  %54 = getelementptr inbounds nuw %struct.Exnode_s, ptr %53, i32 0, i32 4
  %55 = getelementptr inbounds nuw %struct.anon.2, ptr %54, i32 0, i32 0
  %56 = load ptr, ptr %55, align 8, !tbaa !11
  %57 = getelementptr inbounds nuw %struct.Exid_s, ptr %56, i32 0, i32 6
  %58 = load ptr, ptr %57, align 8, !tbaa !60
  %59 = call ptr %52(ptr noundef %58, ptr noundef %11, i32 noundef 512)
  store ptr %59, ptr %10, align 8, !tbaa !10
  %60 = icmp ne ptr %59, null
  br i1 %60, label %89, label %61

61:                                               ; preds = %44
  %62 = load ptr, ptr %6, align 8, !tbaa !3
  %63 = getelementptr inbounds nuw %struct.Expr_s, ptr %62, i32 0, i32 3
  %64 = load ptr, ptr %63, align 8, !tbaa !40
  %65 = call ptr @vmalloc(ptr noundef %64, i64 noundef 40)
  store ptr %65, ptr %10, align 8, !tbaa !10
  %66 = icmp ne ptr %65, null
  br i1 %66, label %69, label %67

67:                                               ; preds = %61
  %68 = call ptr @exnospace()
  br label %69

69:                                               ; preds = %67, %61
  %70 = load ptr, ptr %10, align 8, !tbaa !10
  call void @llvm.memset.p0.i64(ptr align 8 %16, i8 0, i64 40, i1 false)
  call void @llvm.memcpy.p0.p0.i64(ptr align 8 %70, ptr align 8 %16, i64 40, i1 false), !tbaa.struct !81
  %71 = load ptr, ptr %10, align 8, !tbaa !10
  %72 = getelementptr inbounds nuw %struct.Exassoc_t, ptr %71, i32 0, i32 1
  call void @llvm.memcpy.p0.p0.i64(ptr align 8 %72, ptr align 8 %11, i64 8, i1 false), !tbaa.struct !34
  %73 = load ptr, ptr %7, align 8, !tbaa !8
  %74 = getelementptr inbounds nuw %struct.Exnode_s, ptr %73, i32 0, i32 4
  %75 = getelementptr inbounds nuw %struct.anon.2, ptr %74, i32 0, i32 0
  %76 = load ptr, ptr %75, align 8, !tbaa !11
  %77 = getelementptr inbounds nuw %struct.Exid_s, ptr %76, i32 0, i32 6
  %78 = load ptr, ptr %77, align 8, !tbaa !60
  %79 = getelementptr inbounds nuw %struct.dt_s_, ptr %78, i32 0, i32 0
  %80 = load ptr, ptr %79, align 8, !tbaa !61
  %81 = load ptr, ptr %7, align 8, !tbaa !8
  %82 = getelementptr inbounds nuw %struct.Exnode_s, ptr %81, i32 0, i32 4
  %83 = getelementptr inbounds nuw %struct.anon.2, ptr %82, i32 0, i32 0
  %84 = load ptr, ptr %83, align 8, !tbaa !11
  %85 = getelementptr inbounds nuw %struct.Exid_s, ptr %84, i32 0, i32 6
  %86 = load ptr, ptr %85, align 8, !tbaa !60
  %87 = load ptr, ptr %10, align 8, !tbaa !10
  %88 = call ptr %80(ptr noundef %86, ptr noundef %87, i32 noundef 1)
  br label %89

89:                                               ; preds = %69, %44
  br label %177

90:                                               ; preds = %28
  call void @llvm.lifetime.start.p0(i64 8, ptr %17) #15
  %91 = load ptr, ptr %7, align 8, !tbaa !8
  %92 = getelementptr inbounds nuw %struct.Exnode_s, ptr %91, i32 0, i32 4
  %93 = getelementptr inbounds nuw %struct.anon.2, ptr %92, i32 0, i32 2
  %94 = load ptr, ptr %93, align 8, !tbaa !11
  %95 = getelementptr inbounds nuw %struct.Exnode_s, ptr %94, i32 0, i32 0
  %96 = load i64, ptr %95, align 8, !tbaa !12
  store i64 %96, ptr %17, align 8, !tbaa !45
  %97 = load i64, ptr %17, align 8, !tbaa !45
  %98 = icmp ne i64 %97, 263
  br i1 %98, label %99, label %120

99:                                               ; preds = %90
  %100 = load i64, ptr %17, align 8, !tbaa !45
  %101 = icmp sgt i64 %100, 258
  br i1 %101, label %113, label %102

102:                                              ; preds = %99
  call void @llvm.lifetime.start.p0(i64 8, ptr %18) #15
  %103 = load ptr, ptr %6, align 8, !tbaa !3
  %104 = getelementptr inbounds nuw %struct.Expr_s, ptr %103, i32 0, i32 6
  %105 = load ptr, ptr %104, align 8, !tbaa !17
  %106 = getelementptr inbounds nuw %struct.Exdisc_s, ptr %105, i32 0, i32 9
  %107 = load ptr, ptr %106, align 8, !tbaa !83
  %108 = load i64, ptr %17, align 8, !tbaa !45
  %109 = getelementptr inbounds nuw %union.EX_STYPE, ptr %11, i32 0, i32 0
  %110 = load ptr, ptr %109, align 8
  %111 = call ptr %107(ptr %110, i64 noundef %108)
  %112 = getelementptr inbounds nuw %union.EX_STYPE, ptr %18, i32 0, i32 0
  store ptr %111, ptr %112, align 8
  call void @llvm.memcpy.p0.p0.i64(ptr align 8 %12, ptr align 8 %18, i64 8, i1 false), !tbaa.struct !34
  call void @llvm.lifetime.end.p0(i64 8, ptr %18) #15
  br label %115

113:                                              ; preds = %99
  %114 = load i64, ptr %11, align 8, !tbaa !11
  store i64 %114, ptr %12, align 8, !tbaa !11
  br label %115

115:                                              ; preds = %113, %102
  %116 = getelementptr inbounds [17 x i8], ptr %13, i64 0, i64 0
  %117 = load i64, ptr %12, align 8, !tbaa !11
  %118 = call i32 (ptr, i64, ptr, ...) @snprintf(ptr noundef %116, i64 noundef 17, ptr noundef @.str.20, i64 noundef %117) #15
  %119 = getelementptr inbounds [17 x i8], ptr %13, i64 0, i64 0
  store ptr %119, ptr %14, align 8, !tbaa !42
  br label %122

120:                                              ; preds = %90
  %121 = load ptr, ptr %11, align 8, !tbaa !11
  store ptr %121, ptr %14, align 8, !tbaa !42
  br label %122

122:                                              ; preds = %120, %115
  %123 = load ptr, ptr %7, align 8, !tbaa !8
  %124 = getelementptr inbounds nuw %struct.Exnode_s, ptr %123, i32 0, i32 4
  %125 = getelementptr inbounds nuw %struct.anon.2, ptr %124, i32 0, i32 0
  %126 = load ptr, ptr %125, align 8, !tbaa !11
  %127 = getelementptr inbounds nuw %struct.Exid_s, ptr %126, i32 0, i32 6
  %128 = load ptr, ptr %127, align 8, !tbaa !60
  %129 = getelementptr inbounds nuw %struct.dt_s_, ptr %128, i32 0, i32 0
  %130 = load ptr, ptr %129, align 8, !tbaa !61
  %131 = load ptr, ptr %7, align 8, !tbaa !8
  %132 = getelementptr inbounds nuw %struct.Exnode_s, ptr %131, i32 0, i32 4
  %133 = getelementptr inbounds nuw %struct.anon.2, ptr %132, i32 0, i32 0
  %134 = load ptr, ptr %133, align 8, !tbaa !11
  %135 = getelementptr inbounds nuw %struct.Exid_s, ptr %134, i32 0, i32 6
  %136 = load ptr, ptr %135, align 8, !tbaa !60
  %137 = load ptr, ptr %14, align 8, !tbaa !42
  %138 = call ptr %130(ptr noundef %136, ptr noundef %137, i32 noundef 512)
  store ptr %138, ptr %10, align 8, !tbaa !10
  %139 = icmp ne ptr %138, null
  br i1 %139, label %176, label %140

140:                                              ; preds = %122
  %141 = load ptr, ptr %6, align 8, !tbaa !3
  %142 = getelementptr inbounds nuw %struct.Expr_s, ptr %141, i32 0, i32 3
  %143 = load ptr, ptr %142, align 8, !tbaa !40
  %144 = load ptr, ptr %14, align 8, !tbaa !42
  %145 = call i64 @strlen(ptr noundef %144) #18
  %146 = add i64 40, %145
  %147 = call ptr @vmalloc(ptr noundef %143, i64 noundef %146)
  store ptr %147, ptr %10, align 8, !tbaa !10
  %148 = icmp ne ptr %147, null
  br i1 %148, label %151, label %149

149:                                              ; preds = %140
  %150 = call ptr @exnospace()
  br label %151

151:                                              ; preds = %149, %140
  %152 = load ptr, ptr %10, align 8, !tbaa !10
  call void @llvm.memset.p0.i64(ptr align 8 %19, i8 0, i64 40, i1 false)
  call void @llvm.memcpy.p0.p0.i64(ptr align 8 %152, ptr align 8 %19, i64 40, i1 false), !tbaa.struct !81
  %153 = load ptr, ptr %10, align 8, !tbaa !10
  %154 = getelementptr inbounds nuw %struct.Exassoc_t, ptr %153, i32 0, i32 3
  %155 = getelementptr inbounds [1 x i8], ptr %154, i64 0, i64 0
  %156 = load ptr, ptr %14, align 8, !tbaa !42
  %157 = call ptr @strcpy(ptr noundef %155, ptr noundef %156) #15
  %158 = load ptr, ptr %10, align 8, !tbaa !10
  %159 = getelementptr inbounds nuw %struct.Exassoc_t, ptr %158, i32 0, i32 1
  call void @llvm.memcpy.p0.p0.i64(ptr align 8 %159, ptr align 8 %11, i64 8, i1 false), !tbaa.struct !34
  %160 = load ptr, ptr %7, align 8, !tbaa !8
  %161 = getelementptr inbounds nuw %struct.Exnode_s, ptr %160, i32 0, i32 4
  %162 = getelementptr inbounds nuw %struct.anon.2, ptr %161, i32 0, i32 0
  %163 = load ptr, ptr %162, align 8, !tbaa !11
  %164 = getelementptr inbounds nuw %struct.Exid_s, ptr %163, i32 0, i32 6
  %165 = load ptr, ptr %164, align 8, !tbaa !60
  %166 = getelementptr inbounds nuw %struct.dt_s_, ptr %165, i32 0, i32 0
  %167 = load ptr, ptr %166, align 8, !tbaa !61
  %168 = load ptr, ptr %7, align 8, !tbaa !8
  %169 = getelementptr inbounds nuw %struct.Exnode_s, ptr %168, i32 0, i32 4
  %170 = getelementptr inbounds nuw %struct.anon.2, ptr %169, i32 0, i32 0
  %171 = load ptr, ptr %170, align 8, !tbaa !11
  %172 = getelementptr inbounds nuw %struct.Exid_s, ptr %171, i32 0, i32 6
  %173 = load ptr, ptr %172, align 8, !tbaa !60
  %174 = load ptr, ptr %10, align 8, !tbaa !10
  %175 = call ptr %167(ptr noundef %173, ptr noundef %174, i32 noundef 1)
  br label %176

176:                                              ; preds = %151, %122
  call void @llvm.lifetime.end.p0(i64 8, ptr %17) #15
  br label %177

177:                                              ; preds = %176, %89
  %178 = load ptr, ptr %10, align 8, !tbaa !10
  %179 = load ptr, ptr %9, align 8, !tbaa !10
  store ptr %178, ptr %179, align 8, !tbaa !10
  %180 = load ptr, ptr %10, align 8, !tbaa !10
  %181 = icmp ne ptr %180, null
  br i1 %181, label %182, label %209

182:                                              ; preds = %177
  %183 = load ptr, ptr %7, align 8, !tbaa !8
  %184 = getelementptr inbounds nuw %struct.Exnode_s, ptr %183, i32 0, i32 4
  %185 = getelementptr inbounds nuw %struct.anon.2, ptr %184, i32 0, i32 0
  %186 = load ptr, ptr %185, align 8, !tbaa !11
  %187 = getelementptr inbounds nuw %struct.Exid_s, ptr %186, i32 0, i32 3
  %188 = load i64, ptr %187, align 8, !tbaa !59
  %189 = icmp eq i64 %188, 263
  br i1 %189, label %190, label %206

190:                                              ; preds = %182
  %191 = load ptr, ptr %10, align 8, !tbaa !10
  %192 = getelementptr inbounds nuw %struct.Exassoc_t, ptr %191, i32 0, i32 2
  %193 = load ptr, ptr %192, align 8, !tbaa !11
  %194 = icmp ne ptr %193, null
  br i1 %194, label %206, label %195

195:                                              ; preds = %190
  %196 = load ptr, ptr %10, align 8, !tbaa !10
  %197 = getelementptr inbounds nuw %struct.Exassoc_t, ptr %196, i32 0, i32 2
  call void @llvm.lifetime.start.p0(i64 8, ptr %20) #15
  %198 = load ptr, ptr %7, align 8, !tbaa !8
  %199 = getelementptr inbounds nuw %struct.Exnode_s, ptr %198, i32 0, i32 4
  %200 = getelementptr inbounds nuw %struct.anon.2, ptr %199, i32 0, i32 0
  %201 = load ptr, ptr %200, align 8, !tbaa !11
  %202 = getelementptr inbounds nuw %struct.Exid_s, ptr %201, i32 0, i32 3
  %203 = load i64, ptr %202, align 8, !tbaa !59
  %204 = call ptr @exzero(i64 noundef %203)
  %205 = getelementptr inbounds nuw %union.EX_STYPE, ptr %20, i32 0, i32 0
  store ptr %204, ptr %205, align 8
  call void @llvm.memcpy.p0.p0.i64(ptr align 8 %197, ptr align 8 %20, i64 8, i1 false), !tbaa.struct !34
  call void @llvm.lifetime.end.p0(i64 8, ptr %20) #15
  br label %206

206:                                              ; preds = %195, %190, %182
  %207 = load ptr, ptr %10, align 8, !tbaa !10
  %208 = getelementptr inbounds nuw %struct.Exassoc_t, ptr %207, i32 0, i32 2
  call void @llvm.memcpy.p0.p0.i64(ptr align 8 %5, ptr align 8 %208, i64 8, i1 false), !tbaa.struct !34
  store i32 1, ptr %21, align 4
  br label %218

209:                                              ; preds = %177
  call void @llvm.lifetime.start.p0(i64 8, ptr %22) #15
  %210 = load ptr, ptr %7, align 8, !tbaa !8
  %211 = getelementptr inbounds nuw %struct.Exnode_s, ptr %210, i32 0, i32 4
  %212 = getelementptr inbounds nuw %struct.anon.2, ptr %211, i32 0, i32 0
  %213 = load ptr, ptr %212, align 8, !tbaa !11
  %214 = getelementptr inbounds nuw %struct.Exid_s, ptr %213, i32 0, i32 3
  %215 = load i64, ptr %214, align 8, !tbaa !59
  %216 = call ptr @exzero(i64 noundef %215)
  %217 = getelementptr inbounds nuw %union.EX_STYPE, ptr %22, i32 0, i32 0
  store ptr %216, ptr %217, align 8
  call void @llvm.memcpy.p0.p0.i64(ptr align 8 %11, ptr align 8 %22, i64 8, i1 false), !tbaa.struct !34
  call void @llvm.lifetime.end.p0(i64 8, ptr %22) #15
  call void @llvm.memcpy.p0.p0.i64(ptr align 8 %5, ptr align 8 %11, i64 8, i1 false), !tbaa.struct !34
  store i32 1, ptr %21, align 4
  br label %218

218:                                              ; preds = %209, %206
  call void @llvm.lifetime.end.p0(i64 8, ptr %14) #15
  call void @llvm.lifetime.end.p0(i64 17, ptr %13) #15
  call void @llvm.lifetime.end.p0(i64 8, ptr %12) #15
  br label %229

219:                                              ; preds = %4
  %220 = load ptr, ptr %9, align 8, !tbaa !10
  store ptr null, ptr %220, align 8, !tbaa !10
  %221 = load ptr, ptr %7, align 8, !tbaa !8
  %222 = getelementptr inbounds nuw %struct.Exnode_s, ptr %221, i32 0, i32 4
  %223 = getelementptr inbounds nuw %struct.anon.2, ptr %222, i32 0, i32 0
  %224 = load ptr, ptr %223, align 8, !tbaa !11
  %225 = getelementptr inbounds nuw %struct.Exid_s, ptr %224, i32 0, i32 5
  %226 = load ptr, ptr %225, align 8, !tbaa !41
  %227 = getelementptr inbounds nuw %struct.Exnode_s, ptr %226, i32 0, i32 4
  %228 = getelementptr inbounds nuw %struct.anon, ptr %227, i32 0, i32 0
  call void @llvm.memcpy.p0.p0.i64(ptr align 8 %5, ptr align 8 %228, i64 8, i1 false), !tbaa.struct !34
  store i32 1, ptr %21, align 4
  br label %229

229:                                              ; preds = %219, %218
  call void @llvm.lifetime.end.p0(i64 8, ptr %11) #15
  call void @llvm.lifetime.end.p0(i64 8, ptr %10) #15
  %230 = getelementptr inbounds nuw %union.EX_STYPE, ptr %5, i32 0, i32 0
  %231 = load ptr, ptr %230, align 8
  ret ptr %231
}