; Function Attrs: nounwind uwtable
define internal fastcc ptr @getdyn(ptr noundef %0, ptr noundef readonly captures(none) %1, ptr noundef %2, ptr noundef nonnull writeonly captures(none) initializes((0, 8)) %3) unnamed_addr #0 {
  %5 = alloca %union.EX_STYPE, align 8
  %6 = alloca [17 x i8], align 16
  call void @llvm.lifetime.start.p0(i64 8, ptr nonnull %5) #25
  %7 = getelementptr inbounds nuw i8, ptr %1, i64 32
  %8 = getelementptr inbounds nuw i8, ptr %1, i64 48
  %9 = load ptr, ptr %8, align 8, !tbaa !3
  %.not = icmp eq ptr %9, null
  br i1 %.not, label %77, label %10

10:                                               ; preds = %4
  call void @llvm.lifetime.start.p0(i64 17, ptr nonnull %6) #25
  %11 = tail call fastcc ptr @eval(ptr noundef %0, ptr noundef nonnull %9, ptr noundef %2)
  store ptr %11, ptr %5, align 8, !tbaa !3
  %12 = load ptr, ptr %7, align 8, !tbaa !3
  %13 = getelementptr inbounds nuw i8, ptr %12, i64 40
  %14 = load i64, ptr %13, align 8, !tbaa !75
  %15 = icmp eq i64 %14, 259
  %16 = ptrtoint ptr %11 to i64
  br i1 %15, label %17, label %31

17:                                               ; preds = %10
  %18 = getelementptr inbounds nuw i8, ptr %12, i64 56
  %19 = load ptr, ptr %18, align 8, !tbaa !53
  %20 = load ptr, ptr %19, align 8, !tbaa !54
  %21 = call ptr %20(ptr noundef nonnull %19, ptr noundef nonnull %5, i32 noundef 512) #25
  %.not55 = icmp eq ptr %21, null
  br i1 %.not55, label %22, label %68

22:                                               ; preds = %17
  %23 = getelementptr inbounds nuw i8, ptr %0, i64 96
  %24 = load ptr, ptr %23, align 8, !tbaa !36
  %25 = call ptr @vmalloc(ptr noundef %24, i64 noundef 40) #25
  %.not56 = icmp eq ptr %25, null
  br i1 %.not56, label %26, label %28

26:                                               ; preds = %22
  %27 = call ptr @exnospace() #25
  br label %28

28:                                               ; preds = %26, %22
  call void @llvm.memset.p0.i64(ptr noundef nonnull align 8 dereferenceable(40) %25, i8 0, i64 40, i1 false)
  %29 = getelementptr inbounds nuw i8, ptr %25, i64 16
  %30 = load i64, ptr %5, align 8, !tbaa !3
  store i64 %30, ptr %29, align 8, !tbaa !3
  br label %.sink.split

31:                                               ; preds = %10
  %32 = load ptr, ptr %8, align 8, !tbaa !3
  %33 = load i64, ptr %32, align 8, !tbaa !6
  %.not52 = icmp eq i64 %33, 263
  br i1 %.not52, label %45, label %34

34:                                               ; preds = %31
  %35 = icmp sgt i64 %33, 258
  br i1 %35, label %43, label %36

36:                                               ; preds = %34
  %37 = getelementptr inbounds nuw i8, ptr %0, i64 120
  %38 = load ptr, ptr %37, align 8, !tbaa !11
  %39 = getelementptr inbounds nuw i8, ptr %38, i64 72
  %40 = load ptr, ptr %39, align 8, !tbaa !76
  %41 = tail call ptr %40(ptr %11, i64 noundef %33) #25
  %42 = ptrtoint ptr %41 to i64
  br label %43

43:                                               ; preds = %34, %36
  %.sroa.08.0 = phi i64 [ %42, %36 ], [ %16, %34 ]
  %44 = call i32 (ptr, i64, ptr, ...) @snprintf(ptr noundef nonnull dereferenceable(1) %6, i64 noundef 17, ptr noundef nonnull @.str.20, i64 noundef %.sroa.08.0) #25
  %.pre = load ptr, ptr %7, align 8, !tbaa !3
  br label %45

45:                                               ; preds = %31, %43
  %46 = phi ptr [ %.pre, %43 ], [ %12, %31 ]
  %.047 = phi ptr [ %6, %43 ], [ %11, %31 ]
  %47 = getelementptr inbounds nuw i8, ptr %46, i64 56
  %48 = load ptr, ptr %47, align 8, !tbaa !53
  %49 = load ptr, ptr %48, align 8, !tbaa !54
  %50 = call ptr %49(ptr noundef nonnull %48, ptr noundef %.047, i32 noundef 512) #25
  %.not53 = icmp eq ptr %50, null
  br i1 %.not53, label %51, label %68

51:                                               ; preds = %45
  %52 = getelementptr inbounds nuw i8, ptr %0, i64 96
  %53 = load ptr, ptr %52, align 8, !tbaa !36
  %54 = call i64 @strlen(ptr noundef nonnull dereferenceable(1) %.047) #30
  %55 = add i64 %54, 40
  %56 = call ptr @vmalloc(ptr noundef %53, i64 noundef %55) #25
  %.not54 = icmp eq ptr %56, null
  br i1 %.not54, label %57, label %59

57:                                               ; preds = %51
  %58 = call ptr @exnospace() #25
  br label %59

59:                                               ; preds = %57, %51
  call void @llvm.memset.p0.i64(ptr noundef nonnull align 8 dereferenceable(40) %56, i8 0, i64 40, i1 false)
  %60 = getelementptr inbounds nuw i8, ptr %56, i64 32
  %61 = call ptr @strcpy(ptr noundef nonnull dereferenceable(1) %60, ptr noundef nonnull dereferenceable(1) %.047) #25
  %62 = getelementptr inbounds nuw i8, ptr %56, i64 16
  store i64 %16, ptr %62, align 8, !tbaa !3
  br label %.sink.split

.sink.split:                                      ; preds = %59, %28
  %.sink60 = phi ptr [ %25, %28 ], [ %56, %59 ]
  %63 = load ptr, ptr %7, align 8, !tbaa !3
  %64 = getelementptr inbounds nuw i8, ptr %63, i64 56
  %65 = load ptr, ptr %64, align 8, !tbaa !53
  %66 = load ptr, ptr %65, align 8, !tbaa !54
  %67 = call ptr %66(ptr noundef nonnull %65, ptr noundef nonnull %.sink60, i32 noundef 1) #25
  br label %68

68:                                               ; preds = %.sink.split, %17, %45
  %.0 = phi ptr [ %21, %17 ], [ %50, %45 ], [ %.sink60, %.sink.split ]
  store ptr %.0, ptr %3, align 8, !tbaa !35
  %69 = load ptr, ptr %7, align 8, !tbaa !3
  %70 = getelementptr inbounds nuw i8, ptr %69, i64 32
  %71 = load i64, ptr %70, align 8, !tbaa !52
  %72 = icmp eq i64 %71, 263
  %73 = getelementptr inbounds nuw i8, ptr %.0, i64 24
  %74 = load ptr, ptr %73, align 8, !tbaa !3
  %.not58 = icmp eq ptr %74, null
  %or.cond = select i1 %72, i1 %.not58, i1 false
  br i1 %or.cond, label %75, label %._crit_edge

75:                                               ; preds = %68
  %76 = call ptr @exzero(i64 noundef 263) #25
  store ptr %76, ptr %73, align 8, !tbaa !3
  br label %._crit_edge

._crit_edge:                                      ; preds = %68, %75
  %.sroa.044.0.copyload = phi ptr [ %76, %75 ], [ %74, %68 ]
  call void @llvm.lifetime.end.p0(i64 17, ptr nonnull %6) #25
  br label %82

77:                                               ; preds = %4
  store ptr null, ptr %3, align 8, !tbaa !35
  %78 = load ptr, ptr %7, align 8, !tbaa !3
  %79 = getelementptr inbounds nuw i8, ptr %78, i64 48
  %80 = load ptr, ptr %79, align 8, !tbaa !37
  %81 = getelementptr inbounds nuw i8, ptr %80, i64 32
  %.sroa.044.0.copyload46 = load ptr, ptr %81, align 8, !tbaa !3
  br label %82

82:                                               ; preds = %77, %._crit_edge
  %.sroa.044.1 = phi ptr [ %.sroa.044.0.copyload, %._crit_edge ], [ %.sroa.044.0.copyload46, %77 ]
  call void @llvm.lifetime.end.p0(i64 8, ptr nonnull %5) #25
  ret ptr %.sroa.044.1
}